target datalayout = "e-m:e-p270:32:32-p271:32:32-p272:64:64-i64:64-i128:128-f80:128-n8:16:32:64-S128"
target triple = "x86_64-pc-linux-gnu"

%"class.icu_77::TimeUnitFormat" = type <{ %"class.icu_77::MeasureFormat", [7 x ptr], i32, [4 x i8] }>
%"class.icu_77::MeasureFormat" = type { %"class.icu_77::Format", ptr, ptr, ptr, i32, ptr }
%"class.icu_77::Format" = type { %"class.icu_77::UObject", ptr, ptr }
%"class.icu_77::UObject" = type { ptr }

; Function Attrs: inlinehint mustprogress nounwind uwtable
define internal noundef signext i8 @_ZL9U_FAILURE10UErrorCode(i32 noundef %0) #2 {
  %2 = alloca i32, align 4
  store i32 %0, ptr %2, align 4, !tbaa !15
  %3 = load i32, ptr %2, align 4, !tbaa !15
  %4 = icmp sgt i32 %3, 0
  %5 = zext i1 %4 to i8
  ret i8 %5
}

; Function Attrs: mustprogress uwtable
define void @_ZN6icu_7714TimeUnitFormat6createE20UTimeUnitFormatStyleR10UErrorCode(ptr noundef nonnull align 8 dereferenceable(124) %0, i32 noundef %1, ptr noundef nonnull align 4 dereferenceable(4) %2) #1 align 2 {
  %4 = alloca ptr, align 8
  %5 = alloca i32, align 4
  %6 = alloca ptr, align 8
  %7 = alloca i32, align 4
  store ptr %0, ptr %4, align 8, !tbaa !23
  store i32 %1, ptr %5, align 4, !tbaa !27
  store ptr %2, ptr %6, align 8, !tbaa !22
  %8 = load ptr, ptr %4, align 8
  call void @llvm.lifetime.start.p0(i64 4, ptr %7) #11
  store i32 0, ptr %7, align 4, !tbaa !29
  br label %9

9:                                                ; preds = %18, %3
  %10 = load i32, ptr %7, align 4, !tbaa !29
  %11 = icmp slt i32 %10, 7
  br i1 %11, label %13, label %12

12:                                               ; preds = %9
  call void @llvm.lifetime.end.p0(i64 4, ptr %7) #11
  br label %21

13:                                               ; preds = %9
  %14 = getelementptr inbounds nuw %"class.icu_77::TimeUnitFormat", ptr %8, i32 0, i32 1
  %15 = load i32, ptr %7, align 4, !tbaa !29
  %16 = zext i32 %15 to i64
  %17 = getelementptr inbounds nuw [7 x ptr], ptr %14, i64 0, i64 %16
  store ptr null, ptr %17, align 8, !tbaa !31
  br label %18

18:                                               ; preds = %13
  %19 = load i32, ptr %7, align 4, !tbaa !29
  %20 = add nsw i32 %19, 1
  store i32 %20, ptr %7, align 4, !tbaa !29
  br label %9, !llvm.loop !33

21:                                               ; preds = %12
  %22 = load ptr, ptr %6, align 8, !tbaa !22
  %23 = load i32, ptr %22, align 4, !tbaa !15
  %24 = call noundef signext i8 @_ZL9U_FAILURE10UErrorCode(i32 noundef %23)
  %25 = icmp ne i8 %24, 0
  br i1 %25, label %26, label %27

26:                                               ; preds = %21
  br label %39

27:                                               ; preds = %21
  %28 = load i32, ptr %5, align 4, !tbaa !27
  %29 = icmp slt i32 %28, 0
  br i1 %29, label %33, label %30

30:                                               ; preds = %27
  %31 = load i32, ptr %5, align 4, !tbaa !27
  %32 = icmp sge i32 %31, 2
  br i1 %32, label %33, label %35

33:                                               ; preds = %30, %27
  %34 = load ptr, ptr %6, align 8, !tbaa !22
  store i32 1, ptr %34, align 4, !tbaa !15
  br label %39

35:                                               ; preds = %30
  %36 = load i32, ptr %5, align 4, !tbaa !27
  %37 = getelementptr inbounds nuw %"class.icu_77::TimeUnitFormat", ptr %8, i32 0, i32 2
  store i32 %36, ptr %37, align 8, !tbaa !35
  %38 = load ptr, ptr %6, align 8, !tbaa !22
  call void @_ZN6icu_7714TimeUnitFormat5setupER10UErrorCode(ptr noundef nonnull align 8 dereferenceable(124) %8, ptr noundef nonnull align 4 dereferenceable(4) %38)
  br label %39

39:                                               ; preds = %35, %33, %26
  ret void
}

; Function Attrs: mustprogress uwtable
define void @_ZN6icu_7714TimeUnitFormatC2ERKNS_6LocaleER10UErrorCode(ptr noundef nonnull align 8 dereferenceable(124) %0, ptr noundef nonnull align 8 dereferenceable(217) %1, ptr noundef nonnull align 4 dereferenceable(4) %2) unnamed_addr #1 align 2 personality ptr @__gxx_personality_v0 {
  %4 = alloca ptr, align 8
  %5 = alloca ptr, align 8
  %6 = alloca ptr, align 8
  %7 = alloca ptr, align 8
  %8 = alloca i32, align 4
  store ptr %0, ptr %4, align 8, !tbaa !23
  store ptr %1, ptr %5, align 8, !tbaa !46
  store ptr %2, ptr %6, align 8, !tbaa !22
  %9 = load ptr, ptr %4, align 8
  call void @_ZN6icu_7713MeasureFormatC2Ev(ptr noundef nonnull align 8 dereferenceable(64) %9)
  store ptr getelementptr inbounds inrange(-16, 64) ({ [10 x ptr] }, ptr @_ZTVN6icu_7714TimeUnitFormatE, i32 0, i32 0, i32 2), ptr %9, align 8, !tbaa !25
  %10 = load ptr, ptr %5, align 8, !tbaa !46
  %11 = load ptr, ptr %6, align 8, !tbaa !22
  invoke void @_ZN6icu_7713MeasureFormat17initMeasureFormatERKNS_6LocaleE19UMeasureFormatWidthPNS_12NumberFormatER10UErrorCode(ptr noundef nonnull align 8 dereferenceable(64) %9, ptr noundef nonnull align 8 dereferenceable(217) %10, i32 noundef 0, ptr noundef null, ptr noundef nonnull align 4 dereferenceable(4) %11)
          to label %12 unwind label %15

12:                                               ; preds = %3
  %13 = load ptr, ptr %6, align 8, !tbaa !22
  invoke void @_ZN6icu_7714TimeUnitFormat6createE20UTimeUnitFormatStyleR10UErrorCode(ptr noundef nonnull align 8 dereferenceable(124) %9, i32 noundef 0, ptr noundef nonnull align 4 dereferenceable(4) %13)
          to label %14 unwind label %15

14:                                               ; preds = %12
  ret void

15:                                               ; preds = %12, %3
  %16 = landingpad { ptr, i32 }
          cleanup
  %17 = extractvalue { ptr, i32 } %16, 0
  store ptr %17, ptr %7, align 8
  %18 = extractvalue { ptr, i32 } %16, 1
  store i32 %18, ptr %8, align 4
  call void @_ZN6icu_7713MeasureFormatD2Ev(ptr noundef nonnull align 8 dereferenceable(64) %9) #11
  br label %19

19:                                               ; preds = %15
  %20 = load ptr, ptr %7, align 8
  %21 = load i32, ptr %8, align 4
  %22 = insertvalue { ptr, i32 } poison, ptr %20, 0
  %23 = insertvalue { ptr, i32 } %22, i32 %21, 1
  resume { ptr, i32 } %23
}