; Function Attrs: mustprogress uwtable
define void @_ZN6icu_7714TimeUnitFormatC2ERKNS_6LocaleER10UErrorCode(ptr noundef nonnull align 8 dereferenceable(124) %0, ptr noundef nonnull align 8 dereferenceable(217) %1, ptr noundef nonnull align 4 dereferenceable(4) %2) unnamed_addr #1 align 2 personality ptr @__gxx_personality_v0 {
  tail call void @_ZN6icu_7713MeasureFormatC2Ev(ptr noundef nonnull align 8 dereferenceable(64) %0)
  store ptr getelementptr inbounds nuw inrange(-16, 64) (i8, ptr @_ZTVN6icu_7714TimeUnitFormatE, i64 16), ptr %0, align 8, !tbaa !15
  invoke void @_ZN6icu_7713MeasureFormat17initMeasureFormatERKNS_6LocaleE19UMeasureFormatWidthPNS_12NumberFormatER10UErrorCode(ptr noundef nonnull align 8 dereferenceable(64) %0, ptr noundef nonnull align 8 dereferenceable(217) %1, i32 noundef 0, ptr noundef null, ptr noundef nonnull align 4 dereferenceable(4) %2)
          to label %4 unwind label %10

4:                                                ; preds = %3
  %5 = getelementptr inbounds nuw i8, ptr %0, i64 64
  tail call void @llvm.memset.p0.i64(ptr noundef nonnull align 8 dereferenceable(56) %5, i8 0, i64 56, i1 false), !tbaa !17
  %6 = load i32, ptr %2, align 4, !tbaa !13
  %7 = icmp slt i32 %6, 1
  br i1 %7, label %8, label %_ZN6icu_7714TimeUnitFormat6createE20UTimeUnitFormatStyleR10UErrorCode.exit

8:                                                ; preds = %4
  %9 = getelementptr inbounds nuw i8, ptr %0, i64 120
  store i32 0, ptr %9, align 8, !tbaa !19
  invoke void @_ZN6icu_7714TimeUnitFormat5setupER10UErrorCode(ptr noundef nonnull align 8 dereferenceable(124) %0, ptr noundef nonnull align 4 dereferenceable(4) %2)
          to label %_ZN6icu_7714TimeUnitFormat6createE20UTimeUnitFormatStyleR10UErrorCode.exit unwind label %10

_ZN6icu_7714TimeUnitFormat6createE20UTimeUnitFormatStyleR10UErrorCode.exit: ; preds = %4, %8
  ret void

10:                                               ; preds = %8, %3
  %11 = landingpad { ptr, i32 }
          cleanup
  tail call void @_ZN6icu_7713MeasureFormatD2Ev(ptr noundef nonnull align 8 dereferenceable(64) %0) #16
  resume { ptr, i32 } %11
}